target datalayout = "e-m:e-p270:32:32-p271:32:32-p272:64:64-i64:64-i128:128-f80:128-n8:16:32:64-S128"
target triple = "x86_64-pc-linux-gnu"

; Function Attrs: nounwind uwtable
define internal i32 @arkode_butcher_dot(ptr noundef %0, ptr noundef %1, i32 noundef %2, ptr noundef %3) #0 {
  %5 = alloca i32, align 4
  %6 = alloca ptr, align 8
  %7 = alloca ptr, align 8
  %8 = alloca i32, align 4
  %9 = alloca ptr, align 8
  %10 = alloca i32, align 4
  %11 = alloca i32, align 4
  store ptr %0, ptr %6, align 8, !tbaa !18
  store ptr %1, ptr %7, align 8, !tbaa !18
  store i32 %2, ptr %8, align 4, !tbaa !3
  store ptr %3, ptr %9, align 8, !tbaa !18
  call void @llvm.lifetime.start.p0(i64 4, ptr %10) #7
  %12 = load ptr, ptr %6, align 8, !tbaa !18
  %13 = icmp eq ptr %12, null
  br i1 %13, label %23, label %14

14:                                               ; preds = %4
  %15 = load ptr, ptr %7, align 8, !tbaa !18
  %16 = icmp eq ptr %15, null
  br i1 %16, label %23, label %17

17:                                               ; preds = %14
  %18 = load ptr, ptr %9, align 8, !tbaa !18
  %19 = icmp eq ptr %18, null
  br i1 %19, label %23, label %20

20:                                               ; preds = %17
  %21 = load i32, ptr %8, align 4, !tbaa !3
  %22 = icmp slt i32 %21, 1
  br i1 %22, label %23, label %24

23:                                               ; preds = %20, %17, %14, %4
  store i32 1, ptr %5, align 4
  store i32 1, ptr %11, align 4
  br label %48

24:                                               ; preds = %20
  %25 = load ptr, ptr %9, align 8, !tbaa !18
  store double 0.000000e+00, ptr %25, align 8, !tbaa !21
  store i32 0, ptr %10, align 4, !tbaa !3
  br label %26

26:                                               ; preds = %44, %24
  %27 = load i32, ptr %10, align 4, !tbaa !3
  %28 = load i32, ptr %8, align 4, !tbaa !3
  %29 = icmp slt i32 %27, %28
  br i1 %29, label %30, label %47

30:                                               ; preds = %26
  %31 = load ptr, ptr %6, align 8, !tbaa !18
  %32 = load i32, ptr %10, align 4, !tbaa !3
  %33 = sext i32 %32 to i64
  %34 = getelementptr inbounds double, ptr %31, i64 %33
  %35 = load double, ptr %34, align 8, !tbaa !21
  %36 = load ptr, ptr %7, align 8, !tbaa !18
  %37 = load i32, ptr %10, align 4, !tbaa !3
  %38 = sext i32 %37 to i64
  %39 = getelementptr inbounds double, ptr %36, i64 %38
  %40 = load double, ptr %39, align 8, !tbaa !21
  %41 = load ptr, ptr %9, align 8, !tbaa !18
  %42 = load double, ptr %41, align 8, !tbaa !21
  %43 = call double @llvm.fmuladd.f64(double %35, double %40, double %42)
  store double %43, ptr %41, align 8, !tbaa !21
  br label %44

44:                                               ; preds = %30
  %45 = load i32, ptr %10, align 4, !tbaa !3
  %46 = add nsw i32 %45, 1
  store i32 %46, ptr %10, align 4, !tbaa !3
  br label %26

47:                                               ; preds = %26
  store i32 0, ptr %5, align 4
  store i32 1, ptr %11, align 4
  br label %48

48:                                               ; preds = %47, %23
  call void @llvm.lifetime.end.p0(i64 4, ptr %10) #7
  %49 = load i32, ptr %5, align 4
  ret i32 %49
}

; Function Attrs: nounwind uwtable
define internal i32 @arkode_butcher_vv(ptr noundef %0, ptr noundef %1, i32 noundef %2, ptr noundef %3) #0 {
  %5 = alloca i32, align 4
  %6 = alloca ptr, align 8
  %7 = alloca ptr, align 8
  %8 = alloca i32, align 4
  %9 = alloca ptr, align 8
  %10 = alloca i32, align 4
  %11 = alloca i32, align 4
  store ptr %0, ptr %6, align 8, !tbaa !18
  store ptr %1, ptr %7, align 8, !tbaa !18
  store i32 %2, ptr %8, align 4, !tbaa !3
  store ptr %3, ptr %9, align 8, !tbaa !18
  call void @llvm.lifetime.start.p0(i64 4, ptr %10) #7
  %12 = load ptr, ptr %6, align 8, !tbaa !18
  %13 = icmp eq ptr %12, null
  br i1 %13, label %23, label %14

14:                                               ; preds = %4
  %15 = load ptr, ptr %7, align 8, !tbaa !18
  %16 = icmp eq ptr %15, null
  br i1 %16, label %23, label %17

17:                                               ; preds = %14
  %18 = load ptr, ptr %9, align 8, !tbaa !18
  %19 = icmp eq ptr %18, null
  br i1 %19, label %23, label %20

20:                                               ; preds = %17
  %21 = load i32, ptr %8, align 4, !tbaa !3
  %22 = icmp slt i32 %21, 1
  br i1 %22, label %23, label %24

23:                                               ; preds = %20, %17, %14, %4
  store i32 1, ptr %5, align 4
  store i32 1, ptr %11, align 4
  br label %49

24:                                               ; preds = %20
  store i32 0, ptr %10, align 4, !tbaa !3
  br label %25

25:                                               ; preds = %45, %24
  %26 = load i32, ptr %10, align 4, !tbaa !3
  %27 = load i32, ptr %8, align 4, !tbaa !3
  %28 = icmp slt i32 %26, %27
  br i1 %28, label %29, label %48

29:                                               ; preds = %25
  %30 = load ptr, ptr %6, align 8, !tbaa !18
  %31 = load i32, ptr %10, align 4, !tbaa !3
  %32 = sext i32 %31 to i64
  %33 = getelementptr inbounds double, ptr %30, i64 %32
  %34 = load double, ptr %33, align 8, !tbaa !21
  %35 = load ptr, ptr %7, align 8, !tbaa !18
  %36 = load i32, ptr %10, align 4, !tbaa !3
  %37 = sext i32 %36 to i64
  %38 = getelementptr inbounds double, ptr %35, i64 %37
  %39 = load double, ptr %38, align 8, !tbaa !21
  %40 = fmul double %34, %39
  %41 = load ptr, ptr %9, align 8, !tbaa !18
  %42 = load i32, ptr %10, align 4, !tbaa !3
  %43 = sext i32 %42 to i64
  %44 = getelementptr inbounds double, ptr %41, i64 %43
  store double %40, ptr %44, align 8, !tbaa !21
  br label %45

45:                                               ; preds = %29
  %46 = load i32, ptr %10, align 4, !tbaa !3
  %47 = add nsw i32 %46, 1
  store i32 %47, ptr %10, align 4, !tbaa !3
  br label %25

48:                                               ; preds = %25
  store i32 0, ptr %5, align 4
  store i32 1, ptr %11, align 4
  br label %49

49:                                               ; preds = %48, %23
  call void @llvm.lifetime.end.p0(i64 4, ptr %10) #7
  %50 = load i32, ptr %5, align 4
  ret i32 %50
}

; Function Attrs: nounwind uwtable
define internal i32 @arkode_butcher_order6a(ptr noundef %0, ptr noundef %1, ptr noundef %2, ptr noundef %3, ptr noundef %4, ptr noundef %5, i32 noundef %6) #0 {
  %8 = alloca i32, align 4
  %9 = alloca ptr, align 8
  %10 = alloca ptr, align 8
  %11 = alloca ptr, align 8
  %12 = alloca ptr, align 8
  %13 = alloca ptr, align 8
  %14 = alloca ptr, align 8
  %15 = alloca i32, align 4
  %16 = alloca double, align 8
  %17 = alloca ptr, align 8
  %18 = alloca ptr, align 8
  %19 = alloca i32, align 4
  store ptr %0, ptr %9, align 8, !tbaa !18
  store ptr %1, ptr %10, align 8, !tbaa !18
  store ptr %2, ptr %11, align 8, !tbaa !18
  store ptr %3, ptr %12, align 8, !tbaa !18
  store ptr %4, ptr %13, align 8, !tbaa !18
  store ptr %5, ptr %14, align 8, !tbaa !18
  store i32 %6, ptr %15, align 4, !tbaa !3
  call void @llvm.lifetime.start.p0(i64 8, ptr %16) #7
  call void @llvm.lifetime.start.p0(i64 8, ptr %17) #7
  %20 = load i32, ptr %15, align 4, !tbaa !3
  %21 = sext i32 %20 to i64
  %22 = call noalias ptr @calloc(i64 noundef %21, i64 noundef 8) #9
  store ptr %22, ptr %17, align 8, !tbaa !18
  call void @llvm.lifetime.start.p0(i64 8, ptr %18) #7
  %23 = load i32, ptr %15, align 4, !tbaa !3
  %24 = sext i32 %23 to i64
  %25 = call noalias ptr @calloc(i64 noundef %24, i64 noundef 8) #9
  store ptr %25, ptr %18, align 8, !tbaa !18
  %26 = load ptr, ptr %10, align 8, !tbaa !18
  %27 = load ptr, ptr %11, align 8, !tbaa !18
  %28 = load i32, ptr %15, align 4, !tbaa !3
  %29 = load ptr, ptr %17, align 8, !tbaa !18
  %30 = call i32 @arkode_butcher_vv(ptr noundef %26, ptr noundef %27, i32 noundef %28, ptr noundef %29)
  %31 = icmp ne i32 %30, 0
  br i1 %31, label %32, label %35

32:                                               ; preds = %7
  %33 = load ptr, ptr %17, align 8, !tbaa !18
  call void @free(ptr noundef %33) #7
  %34 = load ptr, ptr %18, align 8, !tbaa !18
  call void @free(ptr noundef %34) #7
  store i32 0, ptr %8, align 4
  store i32 1, ptr %19, align 4
  br label %81

35:                                               ; preds = %7
  %36 = load ptr, ptr %12, align 8, !tbaa !18
  %37 = load ptr, ptr %17, align 8, !tbaa !18
  %38 = load i32, ptr %15, align 4, !tbaa !3
  %39 = load ptr, ptr %18, align 8, !tbaa !18
  %40 = call i32 @arkode_butcher_vv(ptr noundef %36, ptr noundef %37, i32 noundef %38, ptr noundef %39)
  %41 = icmp ne i32 %40, 0
  br i1 %41, label %42, label %45

42:                                               ; preds = %35
  %43 = load ptr, ptr %17, align 8, !tbaa !18
  call void @free(ptr noundef %43) #7
  %44 = load ptr, ptr %18, align 8, !tbaa !18
  call void @free(ptr noundef %44) #7
  store i32 0, ptr %8, align 4
  store i32 1, ptr %19, align 4
  br label %81

45:                                               ; preds = %35
  %46 = load ptr, ptr %13, align 8, !tbaa !18
  %47 = load ptr, ptr %18, align 8, !tbaa !18
  %48 = load i32, ptr %15, align 4, !tbaa !3
  %49 = load ptr, ptr %17, align 8, !tbaa !18
  %50 = call i32 @arkode_butcher_vv(ptr noundef %46, ptr noundef %47, i32 noundef %48, ptr noundef %49)
  %51 = icmp ne i32 %50, 0
  br i1 %51, label %52, label %55

52:                                               ; preds = %45
  %53 = load ptr, ptr %17, align 8, !tbaa !18
  call void @free(ptr noundef %53) #7
  %54 = load ptr, ptr %18, align 8, !tbaa !18
  call void @free(ptr noundef %54) #7
  store i32 0, ptr %8, align 4
  store i32 1, ptr %19, align 4
  br label %81

55:                                               ; preds = %45
  %56 = load ptr, ptr %14, align 8, !tbaa !18
  %57 = load ptr, ptr %17, align 8, !tbaa !18
  %58 = load i32, ptr %15, align 4, !tbaa !3
  %59 = load ptr, ptr %18, align 8, !tbaa !18
  %60 = call i32 @arkode_butcher_vv(ptr noundef %56, ptr noundef %57, i32 noundef %58, ptr noundef %59)
  %61 = icmp ne i32 %60, 0
  br i1 %61, label %62, label %65

62:                                               ; preds = %55
  %63 = load ptr, ptr %17, align 8, !tbaa !18
  call void @free(ptr noundef %63) #7
  %64 = load ptr, ptr %18, align 8, !tbaa !18
  call void @free(ptr noundef %64) #7
  store i32 0, ptr %8, align 4
  store i32 1, ptr %19, align 4
  br label %81

65:                                               ; preds = %55
  %66 = load ptr, ptr %9, align 8, !tbaa !18
  %67 = load ptr, ptr %18, align 8, !tbaa !18
  %68 = load i32, ptr %15, align 4, !tbaa !3
  %69 = call i32 @arkode_butcher_dot(ptr noundef %66, ptr noundef %67, i32 noundef %68, ptr noundef %16)
  %70 = icmp ne i32 %69, 0
  br i1 %70, label %71, label %72

71:                                               ; preds = %65
  store i32 0, ptr %8, align 4
  store i32 1, ptr %19, align 4
  br label %81

72:                                               ; preds = %65
  %73 = load ptr, ptr %17, align 8, !tbaa !18
  call void @free(ptr noundef %73) #7
  %74 = load ptr, ptr %18, align 8, !tbaa !18
  call void @free(ptr noundef %74) #7
  %75 = load double, ptr %16, align 8, !tbaa !21
  %76 = fsub double %75, 0x3FC5555555555555
  %77 = call double @llvm.fabs.f64(double %76)
  %78 = call double @sqrt(double noundef 0x3CB0000000000000) #7, !tbaa !3
  %79 = fcmp ogt double %77, %78
  %80 = select i1 %79, i32 0, i32 1
  store i32 %80, ptr %8, align 4
  store i32 1, ptr %19, align 4
  br label %81

81:                                               ; preds = %72, %71, %62, %52, %42, %32
  call void @llvm.lifetime.end.p0(i64 8, ptr %18) #7
  call void @llvm.lifetime.end.p0(i64 8, ptr %17) #7
  call void @llvm.lifetime.end.p0(i64 8, ptr %16) #7
  %82 = load i32, ptr %8, align 4
  ret i32 %82
}