; Function Attrs: nounwind memory(readwrite, argmem: read) uwtable
define internal fastcc range(i32 0, 2) i32 @arkode_butcher_order6a(ptr noundef readonly captures(address_is_null) %0, ptr noundef readonly captures(address_is_null) %1, ptr noundef readonly captures(address_is_null) %2, ptr noundef readonly captures(address_is_null) %3, ptr noundef readonly captures(address_is_null) %4, ptr noundef readonly captures(address_is_null) %5, i32 noundef %6) unnamed_addr #10 {
  %8 = sext i32 %6 to i64
  %9 = tail call noalias ptr @calloc(i64 noundef %8, i64 noundef 8) #16
  %10 = tail call noalias ptr @calloc(i64 noundef %8, i64 noundef 8) #16
  %11 = icmp eq ptr %1, null
  %12 = icmp eq ptr %2, null
  %or.cond.i = or i1 %11, %12
  %13 = icmp eq ptr %9, null
  %or.cond3.i = or i1 %or.cond.i, %13
  %14 = icmp slt i32 %6, 1
  %or.cond5.i = or i1 %14, %or.cond3.i
  br i1 %or.cond5.i, label %arkode_butcher_vv.exit, label %.preheader.preheader.i

.preheader.preheader.i:                           ; preds = %7
  %wide.trip.count.i = zext nneg i32 %6 to i64
  br label %.preheader.i

.preheader.i:                                     ; preds = %.preheader.i, %.preheader.preheader.i
  %indvars.iv.i = phi i64 [ 0, %.preheader.preheader.i ], [ %indvars.iv.next.i, %.preheader.i ]
  %15 = getelementptr inbounds nuw double, ptr %1, i64 %indvars.iv.i
  %16 = load double, ptr %15, align 8, !tbaa !18
  %17 = getelementptr inbounds nuw double, ptr %2, i64 %indvars.iv.i
  %18 = load double, ptr %17, align 8, !tbaa !18
  %19 = fmul double %16, %18
  %20 = getelementptr inbounds nuw double, ptr %9, i64 %indvars.iv.i
  store double %19, ptr %20, align 8, !tbaa !18
  %indvars.iv.next.i = add nuw nsw i64 %indvars.iv.i, 1
  %exitcond.not.i = icmp eq i64 %indvars.iv.next.i, %wide.trip.count.i
  br i1 %exitcond.not.i, label %21, label %.preheader.i

arkode_butcher_vv.exit:                           ; preds = %7
  tail call void @free(ptr noundef %9) #17
  tail call void @free(ptr noundef %10) #17
  br label %arkode_butcher_dot.exit

21:                                               ; preds = %.preheader.i
  %22 = icmp eq ptr %3, null
  %23 = icmp eq ptr %10, null
  %or.cond3.i36 = or i1 %22, %23
  br i1 %or.cond3.i36, label %arkode_butcher_vv.exit45, label %.preheader.i40

.preheader.i40:                                   ; preds = %21, %.preheader.i40
  %indvars.iv.i41 = phi i64 [ %indvars.iv.next.i42, %.preheader.i40 ], [ 0, %21 ]
  %24 = getelementptr inbounds nuw double, ptr %3, i64 %indvars.iv.i41
  %25 = load double, ptr %24, align 8, !tbaa !18
  %26 = getelementptr inbounds nuw double, ptr %9, i64 %indvars.iv.i41
  %27 = load double, ptr %26, align 8, !tbaa !18
  %28 = fmul double %25, %27
  %29 = getelementptr inbounds nuw double, ptr %10, i64 %indvars.iv.i41
  store double %28, ptr %29, align 8, !tbaa !18
  %indvars.iv.next.i42 = add nuw nsw i64 %indvars.iv.i41, 1
  %exitcond.not.i43 = icmp eq i64 %indvars.iv.next.i42, %wide.trip.count.i
  br i1 %exitcond.not.i43, label %30, label %.preheader.i40

arkode_butcher_vv.exit45:                         ; preds = %21
  tail call void @free(ptr noundef nonnull %9) #17
  tail call void @free(ptr noundef %10) #17
  br label %arkode_butcher_dot.exit

30:                                               ; preds = %.preheader.i40
  %31 = icmp eq ptr %4, null
  br i1 %31, label %arkode_butcher_vv.exit56, label %.preheader.i51

.preheader.i51:                                   ; preds = %30, %.preheader.i51
  %indvars.iv.i52 = phi i64 [ %indvars.iv.next.i53, %.preheader.i51 ], [ 0, %30 ]
  %32 = getelementptr inbounds nuw double, ptr %4, i64 %indvars.iv.i52
  %33 = load double, ptr %32, align 8, !tbaa !18
  %34 = getelementptr inbounds nuw double, ptr %10, i64 %indvars.iv.i52
  %35 = load double, ptr %34, align 8, !tbaa !18
  %36 = fmul double %33, %35
  %37 = getelementptr inbounds nuw double, ptr %9, i64 %indvars.iv.i52
  store double %36, ptr %37, align 8, !tbaa !18
  %indvars.iv.next.i53 = add nuw nsw i64 %indvars.iv.i52, 1
  %exitcond.not.i54 = icmp eq i64 %indvars.iv.next.i53, %wide.trip.count.i
  br i1 %exitcond.not.i54, label %38, label %.preheader.i51

arkode_butcher_vv.exit56:                         ; preds = %30
  tail call void @free(ptr noundef nonnull %9) #17
  tail call void @free(ptr noundef nonnull %10) #17
  br label %arkode_butcher_dot.exit

38:                                               ; preds = %.preheader.i51
  %39 = icmp eq ptr %5, null
  br i1 %39, label %arkode_butcher_vv.exit67, label %.preheader.i62

.preheader.i62:                                   ; preds = %38, %.preheader.i62
  %indvars.iv.i63 = phi i64 [ %indvars.iv.next.i64, %.preheader.i62 ], [ 0, %38 ]
  %40 = getelementptr inbounds nuw double, ptr %5, i64 %indvars.iv.i63
  %41 = load double, ptr %40, align 8, !tbaa !18
  %42 = getelementptr inbounds nuw double, ptr %9, i64 %indvars.iv.i63
  %43 = load double, ptr %42, align 8, !tbaa !18
  %44 = fmul double %41, %43
  %45 = getelementptr inbounds nuw double, ptr %10, i64 %indvars.iv.i63
  store double %44, ptr %45, align 8, !tbaa !18
  %indvars.iv.next.i64 = add nuw nsw i64 %indvars.iv.i63, 1
  %exitcond.not.i65 = icmp eq i64 %indvars.iv.next.i64, %wide.trip.count.i
  br i1 %exitcond.not.i65, label %46, label %.preheader.i62

arkode_butcher_vv.exit67:                         ; preds = %38
  tail call void @free(ptr noundef nonnull %9) #17
  tail call void @free(ptr noundef nonnull %10) #17
  br label %arkode_butcher_dot.exit

46:                                               ; preds = %.preheader.i62
  %47 = icmp eq ptr %0, null
  br i1 %47, label %arkode_butcher_dot.exit, label %.preheader

.preheader:                                       ; preds = %46, %.preheader
  %indvars.iv.i71 = phi i64 [ %indvars.iv.next.i72, %.preheader ], [ 0, %46 ]
  %48 = phi double [ %53, %.preheader ], [ 0.000000e+00, %46 ]
  %49 = getelementptr inbounds nuw double, ptr %0, i64 %indvars.iv.i71
  %50 = load double, ptr %49, align 8, !tbaa !18
  %51 = getelementptr inbounds nuw double, ptr %10, i64 %indvars.iv.i71
  %52 = load double, ptr %51, align 8, !tbaa !18
  %53 = tail call double @llvm.fmuladd.f64(double %50, double %52, double %48)
  %indvars.iv.next.i72 = add nuw nsw i64 %indvars.iv.i71, 1
  %exitcond.not.i73 = icmp eq i64 %indvars.iv.next.i72, %wide.trip.count.i
  br i1 %exitcond.not.i73, label %54, label %.preheader

54:                                               ; preds = %.preheader
  tail call void @free(ptr noundef %9) #17
  tail call void @free(ptr noundef nonnull %10) #17
  %55 = fadd double %53, 0xBFC5555555555555
  %56 = tail call double @llvm.fabs.f64(double %55)
  %57 = fcmp ule double %56, 0x3E50000000000000
  %58 = zext i1 %57 to i32
  br label %arkode_butcher_dot.exit

arkode_butcher_dot.exit:                          ; preds = %46, %54, %arkode_butcher_vv.exit67, %arkode_butcher_vv.exit56, %arkode_butcher_vv.exit45, %arkode_butcher_vv.exit
  %.0 = phi i32 [ 0, %arkode_butcher_vv.exit ], [ 0, %arkode_butcher_vv.exit45 ], [ 0, %arkode_butcher_vv.exit56 ], [ 0, %arkode_butcher_vv.exit67 ], [ %58, %54 ], [ 0, %46 ]
  ret i32 %.0
}